; ModuleID = '24/2151.c'
source_filename = "24/2151.c"
target datalayout = "e-m:e-p270:32:32-p271:32:32-p272:64:64-i64:64-f80:128-n8:16:32:64-S128"
target triple = "x86_64-pc-linux-gnu"

@.str = private unnamed_addr constant [3 x i8] c"%c\00", align 1
@.str.1 = private unnamed_addr constant [2 x i8] c"\0A\00", align 1

; Function Attrs: noinline nounwind uwtable
define dso_local void @main() #0 {
  %1 = alloca [1000 x i8], align 16
  %2 = alloca i32, align 4
  %3 = alloca i32, align 4
  %4 = alloca i32, align 4
  %5 = alloca i32, align 4
  %6 = alloca i32, align 4
  %7 = alloca i32, align 4
  %8 = alloca i32, align 4
  store i32 0, i32* %3, align 4
  %9 = getelementptr inbounds [1000 x i8], [1000 x i8]* %1, i64 0, i64 0
  %10 = call i32 (i8*, ...) bitcast (i32 (...)* @gets to i32 (i8*, ...)*)(i8* %9)
  %11 = getelementptr inbounds [1000 x i8], [1000 x i8]* %1, i64 0, i64 0
  %12 = call i64 @strlen(i8* %11) #3
  %13 = trunc i64 %12 to i32
  store i32 %13, i32* %8, align 4
  store i32 0, i32* %2, align 4
  br label %14

14:                                               ; preds = %50, %0
  %15 = load i32, i32* %2, align 4
  %16 = load i32, i32* %8, align 4
  %17 = add nsw i32 %16, 1
  %18 = icmp slt i32 %15, %17
  br i1 %18, label %19, label %53

19:                                               ; preds = %14
  %20 = load i32, i32* %2, align 4
  %21 = sext i32 %20 to i64
  %22 = getelementptr inbounds [1000 x i8], [1000 x i8]* %1, i64 0, i64 %21
  %23 = load i8, i8* %22, align 1
  %24 = sext i8 %23 to i32
  %25 = icmp ne i32 %24, 32
  br i1 %25, label %26, label %36

26:                                               ; preds = %19
  %27 = load i32, i32* %2, align 4
  %28 = sext i32 %27 to i64
  %29 = getelementptr inbounds [1000 x i8], [1000 x i8]* %1, i64 0, i64 %28
  %30 = load i8, i8* %29, align 1
  %31 = sext i8 %30 to i32
  %32 = icmp ne i32 %31, 0
  br i1 %32, label %33, label %36

33:                                               ; preds = %26
  %34 = load i32, i32* %3, align 4
  %35 = add nsw i32 %34, 1
  store i32 %35, i32* %3, align 4
  br label %49

36:                                               ; preds = %26, %19
  %37 = load i32, i32* %2, align 4
  %38 = sub nsw i32 %37, 1
  %39 = sext i32 %38 to i64
  %40 = getelementptr inbounds [1000 x i8], [1000 x i8]* %1, i64 0, i64 %39
  %41 = load i8, i8* %40, align 1
  %42 = sext i8 %41 to i32
  %43 = icmp eq i32 %42, 44
  br i1 %43, label %44, label %47

44:                                               ; preds = %36
  %45 = load i32, i32* %3, align 4
  %46 = add nsw i32 %45, -1
  store i32 %46, i32* %3, align 4
  br label %47

47:                                               ; preds = %44, %36
  %48 = load i32, i32* %3, align 4
  store i32 %48, i32* %5, align 4
  store i32 %48, i32* %4, align 4
  store i32 0, i32* %3, align 4
  store i32 0, i32* %7, align 4
  store i32 0, i32* %6, align 4
  br label %53

49:                                               ; preds = %33
  br label %50

50:                                               ; preds = %49
  %51 = load i32, i32* %2, align 4
  %52 = add nsw i32 %51, 1
  store i32 %52, i32* %2, align 4
  br label %14

53:                                               ; preds = %47, %14
  store i32 0, i32* %2, align 4
  br label %54

54:                                               ; preds = %107, %53
  %55 = load i32, i32* %2, align 4
  %56 = load i32, i32* %8, align 4
  %57 = add nsw i32 %56, 1
  %58 = icmp slt i32 %55, %57
  br i1 %58, label %59, label %110

59:                                               ; preds = %54
  %60 = load i32, i32* %2, align 4
  %61 = sext i32 %60 to i64
  %62 = getelementptr inbounds [1000 x i8], [1000 x i8]* %1, i64 0, i64 %61
  %63 = load i8, i8* %62, align 1
  %64 = sext i8 %63 to i32
  %65 = icmp ne i32 %64, 32
  br i1 %65, label %66, label %76

66:                                               ; preds = %59
  %67 = load i32, i32* %2, align 4
  %68 = sext i32 %67 to i64
  %69 = getelementptr inbounds [1000 x i8], [1000 x i8]* %1, i64 0, i64 %68
  %70 = load i8, i8* %69, align 1
  %71 = sext i8 %70 to i32
  %72 = icmp ne i32 %71, 0
  br i1 %72, label %73, label %76

73:                                               ; preds = %66
  %74 = load i32, i32* %3, align 4
  %75 = add nsw i32 %74, 1
  store i32 %75, i32* %3, align 4
  br label %106

76:                                               ; preds = %66, %59
  %77 = load i32, i32* %2, align 4
  %78 = sub nsw i32 %77, 1
  %79 = sext i32 %78 to i64
  %80 = getelementptr inbounds [1000 x i8], [1000 x i8]* %1, i64 0, i64 %79
  %81 = load i8, i8* %80, align 1
  %82 = sext i8 %81 to i32
  %83 = icmp eq i32 %82, 44
  br i1 %83, label %84, label %87

84:                                               ; preds = %76
  %85 = load i32, i32* %3, align 4
  %86 = add nsw i32 %85, -1
  store i32 %86, i32* %3, align 4
  br label %87

87:                                               ; preds = %84, %76
  %88 = load i32, i32* %4, align 4
  %89 = load i32, i32* %3, align 4
  %90 = icmp slt i32 %88, %89
  br i1 %90, label %91, label %96

91:                                               ; preds = %87
  %92 = load i32, i32* %3, align 4
  store i32 %92, i32* %4, align 4
  %93 = load i32, i32* %2, align 4
  %94 = load i32, i32* %4, align 4
  %95 = sub nsw i32 %93, %94
  store i32 %95, i32* %6, align 4
  br label %96

96:                                               ; preds = %91, %87
  %97 = load i32, i32* %5, align 4
  %98 = load i32, i32* %3, align 4
  %99 = icmp sgt i32 %97, %98
  br i1 %99, label %100, label %105

100:                                              ; preds = %96
  %101 = load i32, i32* %3, align 4
  store i32 %101, i32* %5, align 4
  %102 = load i32, i32* %2, align 4
  %103 = load i32, i32* %5, align 4
  %104 = sub nsw i32 %102, %103
  store i32 %104, i32* %7, align 4
  br label %105

105:                                              ; preds = %100, %96
  store i32 0, i32* %3, align 4
  br label %106

106:                                              ; preds = %105, %73
  br label %107

107:                                              ; preds = %106
  %108 = load i32, i32* %2, align 4
  %109 = add nsw i32 %108, 1
  store i32 %109, i32* %2, align 4
  br label %54

110:                                              ; preds = %54
  store i32 0, i32* %2, align 4
  br label %111

111:                                              ; preds = %124, %110
  %112 = load i32, i32* %2, align 4
  %113 = load i32, i32* %4, align 4
  %114 = icmp slt i32 %112, %113
  br i1 %114, label %115, label %127

115:                                              ; preds = %111
  %116 = load i32, i32* %6, align 4
  %117 = load i32, i32* %2, align 4
  %118 = add nsw i32 %116, %117
  %119 = sext i32 %118 to i64
  %120 = getelementptr inbounds [1000 x i8], [1000 x i8]* %1, i64 0, i64 %119
  %121 = load i8, i8* %120, align 1
  %122 = sext i8 %121 to i32
  %123 = call i32 (i8*, ...) @printf(i8* getelementptr inbounds ([3 x i8], [3 x i8]* @.str, i64 0, i64 0), i32 %122)
  br label %124

124:                                              ; preds = %115
  %125 = load i32, i32* %2, align 4
  %126 = add nsw i32 %125, 1
  store i32 %126, i32* %2, align 4
  br label %111

127:                                              ; preds = %111
  %128 = call i32 (i8*, ...) @printf(i8* getelementptr inbounds ([2 x i8], [2 x i8]* @.str.1, i64 0, i64 0))
  store i32 0, i32* %2, align 4
  br label %129

129:                                              ; preds = %142, %127
  %130 = load i32, i32* %2, align 4
  %131 = load i32, i32* %5, align 4
  %132 = icmp slt i32 %130, %131
  br i1 %132, label %133, label %145

133:                                              ; preds = %129
  %134 = load i32, i32* %7, align 4
  %135 = load i32, i32* %2, align 4
  %136 = add nsw i32 %134, %135
  %137 = sext i32 %136 to i64
  %138 = getelementptr inbounds [1000 x i8], [1000 x i8]* %1, i64 0, i64 %137
  %139 = load i8, i8* %138, align 1
  %140 = sext i8 %139 to i32
  %141 = call i32 (i8*, ...) @printf(i8* getelementptr inbounds ([3 x i8], [3 x i8]* @.str, i64 0, i64 0), i32 %140)
  br label %142

142:                                              ; preds = %133
  %143 = load i32, i32* %2, align 4
  %144 = add nsw i32 %143, 1
  store i32 %144, i32* %2, align 4
  br label %129

145:                                              ; preds = %129
  %146 = call i32 (i8*, ...) @printf(i8* getelementptr inbounds ([2 x i8], [2 x i8]* @.str.1, i64 0, i64 0))
  ret void
}

declare dso_local i32 @gets(...) #1

; Function Attrs: nounwind readonly
declare dso_local i64 @strlen(i8*) #2

declare dso_local i32 @printf(i8*, ...) #1


!llvm.module.flags = !{!0}
!llvm.ident = !{!1}

!0 = !{i32 1, !"wchar_size", i32 4}
!1 = !{!"clang version 10.0.0-4ubuntu1 "}
